; Function Attrs: nounwind uwtable
define internal i32 @_sort_job_by_node_list(ptr noundef readonly captures(none) %0, ptr noundef readonly captures(none) %1) #0 {
  %.val = load ptr, ptr %0, align 8
  %3 = getelementptr i8, ptr %.val, i64 8
  %.val.val = load ptr, ptr %3, align 8
  %4 = load ptr, ptr %1, align 8
  %5 = getelementptr inbounds nuw i8, ptr %4, i64 8
  %6 = load ptr, ptr %5, align 8
  %7 = getelementptr inbounds nuw i8, ptr %.val.val, i64 512
  %8 = load ptr, ptr %7, align 8
  %9 = getelementptr inbounds nuw i8, ptr %6, i64 512
  %10 = load ptr, ptr %9, align 8
  %11 = tail call ptr @hostlist_create(ptr noundef %8) #11
  tail call void @hostlist_sort(ptr noundef %11) #11
  %12 = tail call ptr @hostlist_create(ptr noundef %10) #11
  tail call void @hostlist_sort(ptr noundef %12) #11
  %13 = tail call i32 @hostlist_cmp_first(ptr noundef %11, ptr noundef %12) #11
  tail call void @hostlist_destroy(ptr noundef %11) #11
  tail call void @hostlist_destroy(ptr noundef %12) #11
  %.b9.i = load i1, ptr @reverse_order, align 1
  %14 = sub nsw i32 0, %13
  %spec.select.i = select i1 %.b9.i, i32 %14, i32 %13
  ret i32 %spec.select.i
}